target datalayout = "e-m:e-p270:32:32-p271:32:32-p272:64:64-i64:64-i128:128-f80:128-n8:16:32:64-S128"
target triple = "x86_64-pc-linux-gnu"

%"struct.std::_Vector_base.7" = type { %"struct.std::_Vector_base<Assimp::Q3BSP::sQ3BSPFace *, std::allocator<Assimp::Q3BSP::sQ3BSPFace *>>::_Vector_impl" }
%"struct.std::_Vector_base<Assimp::Q3BSP::sQ3BSPFace *, std::allocator<Assimp::Q3BSP::sQ3BSPFace *>>::_Vector_impl" = type { %"struct.std::_Vector_base<Assimp::Q3BSP::sQ3BSPFace *, std::allocator<Assimp::Q3BSP::sQ3BSPFace *>>::_Vector_impl_data" }
%"struct.std::_Vector_base<Assimp::Q3BSP::sQ3BSPFace *, std::allocator<Assimp::Q3BSP::sQ3BSPFace *>>::_Vector_impl_data" = type { ptr, ptr, ptr }
%"struct.Assimp::Q3BSP::sQ3BSPFace" = type { i32, i32, i32, i32, i32, i32, i32, i32, [2 x i32], [2 x i32], %"struct.Assimp::Q3BSP::vec3f", [2 x %"struct.Assimp::Q3BSP::vec3f"], %"struct.Assimp::Q3BSP::vec3f", i32, i32 }
%"struct.Assimp::Q3BSP::vec3f" = type { float, float, float }
%"class.__gnu_cxx::__normal_iterator.59" = type { ptr }

; Function Attrs: mustprogress nounwind uwtable
define linkonce_odr hidden noundef nonnull align 8 dereferenceable(8) ptr @_ZNK9__gnu_cxx17__normal_iteratorIPKPN6Assimp5Q3BSP10sQ3BSPFaceESt6vectorIS4_SaIS4_EEE4baseEv(ptr noundef nonnull align 8 dereferenceable(8) %0) #0 comdat align 2 {
  %2 = alloca ptr, align 8
  store ptr %0, ptr %2, align 8
  %3 = load ptr, ptr %2, align 8
  %4 = getelementptr inbounds nuw %"class.__gnu_cxx::__normal_iterator.59", ptr %3, i32 0, i32 0
  ret ptr %4
}

; Function Attrs: mustprogress nounwind uwtable
define linkonce_odr hidden void @_ZN9__gnu_cxx17__normal_iteratorIPKPN6Assimp5Q3BSP10sQ3BSPFaceESt6vectorIS4_SaIS4_EEEC2ERKS6_(ptr noundef nonnull align 8 dereferenceable(8) %0, ptr noundef nonnull align 8 dereferenceable(8) %1) unnamed_addr #0 comdat align 2 {
  %3 = alloca ptr, align 8
  %4 = alloca ptr, align 8
  store ptr %0, ptr %3, align 8
  store ptr %1, ptr %4, align 8
  %5 = load ptr, ptr %3, align 8
  %6 = getelementptr inbounds nuw %"class.__gnu_cxx::__normal_iterator.59", ptr %5, i32 0, i32 0
  %7 = load ptr, ptr %4, align 8
  %8 = load ptr, ptr %7, align 8
  store ptr %8, ptr %6, align 8
  ret void
}

; Function Attrs: mustprogress nounwind uwtable
define linkonce_odr hidden noundef nonnull align 8 dereferenceable(8) ptr @_ZN9__gnu_cxx17__normal_iteratorIPKPN6Assimp5Q3BSP10sQ3BSPFaceESt6vectorIS4_SaIS4_EEEppEv(ptr noundef nonnull align 8 dereferenceable(8) %0) #0 comdat align 2 {
  %2 = alloca ptr, align 8
  store ptr %0, ptr %2, align 8
  %3 = load ptr, ptr %2, align 8
  %4 = getelementptr inbounds nuw %"class.__gnu_cxx::__normal_iterator.59", ptr %3, i32 0, i32 0
  %5 = load ptr, ptr %4, align 8
  %6 = getelementptr inbounds nuw ptr, ptr %5, i32 1
  store ptr %6, ptr %4, align 8
  ret ptr %3
}

; Function Attrs: mustprogress nounwind uwtable
define linkonce_odr hidden noundef nonnull align 8 dereferenceable(8) ptr @_ZNK9__gnu_cxx17__normal_iteratorIPKPN6Assimp5Q3BSP10sQ3BSPFaceESt6vectorIS4_SaIS4_EEEdeEv(ptr noundef nonnull align 8 dereferenceable(8) %0) #0 comdat align 2 {
  %2 = alloca ptr, align 8
  store ptr %0, ptr %2, align 8
  %3 = load ptr, ptr %2, align 8
  %4 = getelementptr inbounds nuw %"class.__gnu_cxx::__normal_iterator.59", ptr %3, i32 0, i32 0
  %5 = load ptr, ptr %4, align 8
  ret ptr %5
}

; Function Attrs: inlinehint mustprogress nounwind uwtable
define linkonce_odr hidden noundef zeroext i1 @_ZN9__gnu_cxxneIPKPN6Assimp5Q3BSP10sQ3BSPFaceESt6vectorIS4_SaIS4_EEEEbRKNS_17__normal_iteratorIT_T0_EESF_(ptr noundef nonnull align 8 dereferenceable(8) %0, ptr noundef nonnull align 8 dereferenceable(8) %1) #7 comdat {
  %3 = alloca ptr, align 8
  %4 = alloca ptr, align 8
  store ptr %0, ptr %3, align 8
  store ptr %1, ptr %4, align 8
  %5 = load ptr, ptr %3, align 8
  %6 = call noundef nonnull align 8 dereferenceable(8) ptr @_ZNK9__gnu_cxx17__normal_iteratorIPKPN6Assimp5Q3BSP10sQ3BSPFaceESt6vectorIS4_SaIS4_EEE4baseEv(ptr noundef nonnull align 8 dereferenceable(8) %5) #18
  %7 = load ptr, ptr %6, align 8
  %8 = load ptr, ptr %4, align 8
  %9 = call noundef nonnull align 8 dereferenceable(8) ptr @_ZNK9__gnu_cxx17__normal_iteratorIPKPN6Assimp5Q3BSP10sQ3BSPFaceESt6vectorIS4_SaIS4_EEE4baseEv(ptr noundef nonnull align 8 dereferenceable(8) %8) #18
  %10 = load ptr, ptr %9, align 8
  %11 = icmp ne ptr %7, %10
  ret i1 %11
}

; Function Attrs: mustprogress nounwind uwtable
define linkonce_odr hidden ptr @_ZNKSt6vectorIPN6Assimp5Q3BSP10sQ3BSPFaceESaIS3_EE3endEv(ptr noundef nonnull align 8 dereferenceable(24) %0) #0 comdat align 2 {
  %2 = alloca %"class.__gnu_cxx::__normal_iterator.59", align 8
  %3 = alloca ptr, align 8
  store ptr %0, ptr %3, align 8
  %4 = load ptr, ptr %3, align 8
  %5 = getelementptr inbounds nuw %"struct.std::_Vector_base.7", ptr %4, i32 0, i32 0
  %6 = getelementptr inbounds nuw %"struct.std::_Vector_base<Assimp::Q3BSP::sQ3BSPFace *, std::allocator<Assimp::Q3BSP::sQ3BSPFace *>>::_Vector_impl_data", ptr %5, i32 0, i32 1
  call void @_ZN9__gnu_cxx17__normal_iteratorIPKPN6Assimp5Q3BSP10sQ3BSPFaceESt6vectorIS4_SaIS4_EEEC2ERKS6_(ptr noundef nonnull align 8 dereferenceable(8) %2, ptr noundef nonnull align 8 dereferenceable(8) %6) #18
  %7 = getelementptr inbounds nuw %"class.__gnu_cxx::__normal_iterator.59", ptr %2, i32 0, i32 0
  %8 = load ptr, ptr %7, align 8
  ret ptr %8
}

; Function Attrs: mustprogress nounwind uwtable
define linkonce_odr hidden ptr @_ZNKSt6vectorIPN6Assimp5Q3BSP10sQ3BSPFaceESaIS3_EE5beginEv(ptr noundef nonnull align 8 dereferenceable(24) %0) #0 comdat align 2 {
  %2 = alloca %"class.__gnu_cxx::__normal_iterator.59", align 8
  %3 = alloca ptr, align 8
  store ptr %0, ptr %3, align 8
  %4 = load ptr, ptr %3, align 8
  %5 = getelementptr inbounds nuw %"struct.std::_Vector_base.7", ptr %4, i32 0, i32 0
  %6 = getelementptr inbounds nuw %"struct.std::_Vector_base<Assimp::Q3BSP::sQ3BSPFace *, std::allocator<Assimp::Q3BSP::sQ3BSPFace *>>::_Vector_impl_data", ptr %5, i32 0, i32 0
  call void @_ZN9__gnu_cxx17__normal_iteratorIPKPN6Assimp5Q3BSP10sQ3BSPFaceESt6vectorIS4_SaIS4_EEEC2ERKS6_(ptr noundef nonnull align 8 dereferenceable(8) %2, ptr noundef nonnull align 8 dereferenceable(8) %6) #18
  %7 = getelementptr inbounds nuw %"class.__gnu_cxx::__normal_iterator.59", ptr %2, i32 0, i32 0
  %8 = load ptr, ptr %7, align 8
  ret ptr %8
}

; Function Attrs: mustprogress nounwind uwtable
define hidden noundef i64 @_ZNK6Assimp17Q3BSPFileImporter10countFacesERKSt6vectorIPNS_5Q3BSP10sQ3BSPFaceESaIS4_EE(ptr noundef nonnull align 8 dereferenceable(160) %0, ptr noundef nonnull align 8 dereferenceable(24) %1) #0 align 2 {
  %3 = alloca ptr, align 8
  %4 = alloca ptr, align 8
  %5 = alloca i64, align 8
  %6 = alloca %"class.__gnu_cxx::__normal_iterator.59", align 8
  %7 = alloca %"class.__gnu_cxx::__normal_iterator.59", align 8
  %8 = alloca ptr, align 8
  store ptr %0, ptr %3, align 8
  store ptr %1, ptr %4, align 8
  call void @llvm.lifetime.start.p0(i64 8, ptr %5) #18
  store i64 0, ptr %5, align 8
  call void @llvm.lifetime.start.p0(i64 8, ptr %6) #18
  %9 = load ptr, ptr %4, align 8
  %10 = call ptr @_ZNKSt6vectorIPN6Assimp5Q3BSP10sQ3BSPFaceESaIS3_EE5beginEv(ptr noundef nonnull align 8 dereferenceable(24) %9) #18
  %11 = getelementptr inbounds nuw %"class.__gnu_cxx::__normal_iterator.59", ptr %6, i32 0, i32 0
  store ptr %10, ptr %11, align 8
  br label %12

12:                                               ; preds = %29, %2
  call void @llvm.lifetime.start.p0(i64 8, ptr %7) #18
  %13 = load ptr, ptr %4, align 8
  %14 = call ptr @_ZNKSt6vectorIPN6Assimp5Q3BSP10sQ3BSPFaceESaIS3_EE3endEv(ptr noundef nonnull align 8 dereferenceable(24) %13) #18
  %15 = getelementptr inbounds nuw %"class.__gnu_cxx::__normal_iterator.59", ptr %7, i32 0, i32 0
  store ptr %14, ptr %15, align 8
  %16 = call noundef zeroext i1 @_ZN9__gnu_cxxneIPKPN6Assimp5Q3BSP10sQ3BSPFaceESt6vectorIS4_SaIS4_EEEEbRKNS_17__normal_iteratorIT_T0_EESF_(ptr noundef nonnull align 8 dereferenceable(8) %6, ptr noundef nonnull align 8 dereferenceable(8) %7) #18
  call void @llvm.lifetime.end.p0(i64 8, ptr %7) #18
  br i1 %16, label %18, label %17

17:                                               ; preds = %12
  call void @llvm.lifetime.end.p0(i64 8, ptr %6) #18
  br label %31

18:                                               ; preds = %12
  call void @llvm.lifetime.start.p0(i64 8, ptr %8) #18
  %19 = call noundef nonnull align 8 dereferenceable(8) ptr @_ZNK9__gnu_cxx17__normal_iteratorIPKPN6Assimp5Q3BSP10sQ3BSPFaceESt6vectorIS4_SaIS4_EEEdeEv(ptr noundef nonnull align 8 dereferenceable(8) %6) #18
  %20 = load ptr, ptr %19, align 8
  store ptr %20, ptr %8, align 8
  %21 = load ptr, ptr %8, align 8
  %22 = getelementptr inbounds nuw %"struct.Assimp::Q3BSP::sQ3BSPFace", ptr %21, i32 0, i32 6
  %23 = load i32, ptr %22, align 4
  %24 = icmp sgt i32 %23, 0
  br i1 %24, label %25, label %28

25:                                               ; preds = %18
  %26 = load i64, ptr %5, align 8
  %27 = add i64 %26, 1
  store i64 %27, ptr %5, align 8
  br label %28

28:                                               ; preds = %25, %18
  call void @llvm.lifetime.end.p0(i64 8, ptr %8) #18
  br label %29

29:                                               ; preds = %28
  %30 = call noundef nonnull align 8 dereferenceable(8) ptr @_ZN9__gnu_cxx17__normal_iteratorIPKPN6Assimp5Q3BSP10sQ3BSPFaceESt6vectorIS4_SaIS4_EEEppEv(ptr noundef nonnull align 8 dereferenceable(8) %6) #18
  br label %12, !llvm.loop !15

31:                                               ; preds = %17
  %32 = load i64, ptr %5, align 8
  call void @llvm.lifetime.end.p0(i64 8, ptr %5) #18
  ret i64 %32
}