; Function Attrs: mustprogress nofree norecurse nosync nounwind willreturn memory(read, inaccessiblemem: none) uwtable
define hidden noundef i64 @_ZNK6Assimp17Q3BSPFileImporter10countFacesERKSt6vectorIPNS_5Q3BSP10sQ3BSPFaceESaIS4_EE(ptr noundef nonnull readnone align 8 captures(none) dereferenceable(160) %0, ptr noundef nonnull readonly align 8 captures(none) dereferenceable(24) %1) local_unnamed_addr #11 align 2 {
  %3 = load ptr, ptr %1, align 8
  %4 = getelementptr inbounds nuw i8, ptr %1, i64 8
  %5 = load ptr, ptr %4, align 8
  %.not7 = icmp eq ptr %3, %5
  br i1 %.not7, label %._crit_edge, label %.lr.ph

._crit_edge:                                      ; preds = %.lr.ph, %2
  %.0.lcssa = phi i64 [ 0, %2 ], [ %spec.select, %.lr.ph ]
  ret i64 %.0.lcssa

.lr.ph:                                           ; preds = %2, %.lr.ph
  %.09 = phi i64 [ %spec.select, %.lr.ph ], [ 0, %2 ]
  %.sroa.04.08 = phi ptr [ %11, %.lr.ph ], [ %3, %2 ]
  %6 = load ptr, ptr %.sroa.04.08, align 8
  %7 = getelementptr inbounds nuw i8, ptr %6, i64 24
  %8 = load i32, ptr %7, align 4
  %9 = icmp sgt i32 %8, 0
  %10 = zext i1 %9 to i64
  %spec.select = add i64 %.09, %10
  %11 = getelementptr inbounds nuw i8, ptr %.sroa.04.08, i64 8
  %.not = icmp eq ptr %11, %5
  br i1 %.not, label %._crit_edge, label %.lr.ph, !llvm.loop !37
}